; Function Attrs: mustprogress uwtable
define void @_ZN7Imf_3_221DeepScanLineInputFile19multiPartInitializeEPNS_13InputPartDataE(ptr nocapture noundef nonnull readonly align 8 dereferenceable(16) %this, ptr noundef %part) local_unnamed_addr #3 align 2 {
entry:
  %mutex = getelementptr inbounds i8, ptr %part, i64 72
  %0 = load ptr, ptr %mutex, align 8
  %_data = getelementptr inbounds i8, ptr %this, i64 8
  %1 = load ptr, ptr %_data, align 8
  %_streamData = getelementptr inbounds i8, ptr %1, i64 504
  store ptr %0, ptr %_streamData, align 8
  %2 = load ptr, ptr %_data, align 8
  %_streamData3 = getelementptr inbounds i8, ptr %2, i64 504
  %3 = load ptr, ptr %_streamData3, align 8
  %is = getelementptr inbounds i8, ptr %3, i64 40
  %4 = load ptr, ptr %is, align 8
  %vtable = load ptr, ptr %4, align 8
  %vfn = getelementptr inbounds i8, ptr %vtable, i64 16
  %5 = load ptr, ptr %vfn, align 8
  %call = tail call noundef zeroext i1 %5(ptr noundef nonnull align 8 dereferenceable(40) %4)
  %6 = load ptr, ptr %_data, align 8
  %memoryMapped = getelementptr inbounds i8, ptr %6, i64 384
  %frombool = zext i1 %call to i8
  store i8 %frombool, ptr %memoryMapped, align 8
  %version = getelementptr inbounds i8, ptr %part, i64 64
  %7 = load i32, ptr %version, align 8
  %8 = load ptr, ptr %_data, align 8
  %version6 = getelementptr inbounds i8, ptr %8, i64 96
  store i32 %7, ptr %version6, align 8
  tail call void @_ZN7Imf_3_221DeepScanLineInputFile10initializeERKNS_6HeaderE(ptr noundef nonnull align 8 dereferenceable(16) %this, ptr noundef nonnull align 8 dereferenceable(49) %part)
  %chunkOffsets = getelementptr inbounds i8, ptr %part, i64 80
  %9 = load ptr, ptr %_data, align 8
  %lineOffsets = getelementptr inbounds i8, ptr %9, i64 232
  %call8 = tail call noundef nonnull align 8 dereferenceable(24) ptr @_ZNSt6vectorImSaImEEaSERKS1_(ptr noundef nonnull align 8 dereferenceable(24) %lineOffsets, ptr noundef nonnull align 8 dereferenceable(24) %chunkOffsets)
  %partNumber = getelementptr inbounds i8, ptr %part, i64 60
  %10 = load i32, ptr %partNumber, align 4
  %11 = load ptr, ptr %_data, align 8
  %partNumber10 = getelementptr inbounds i8, ptr %11, i64 364
  store i32 %10, ptr %partNumber10, align 4
  ret void
}